; Function Attrs: mustprogress uwtable
define internal noundef zeroext i1 @"_ZNSt17_Function_handlerIFbvEZN3sat12ddfw_wrapper5checkEjPKNS1_7literalEPNS1_8parallelEE3$_0E9_M_invokeERKSt9_Any_data"(ptr noundef nonnull readonly align 8 captures(none) dereferenceable(16) %0) #3 align 2 {
  %.val = load ptr, ptr %0, align 8, !tbaa !236
  %2 = getelementptr inbounds nuw i8, ptr %.val, i64 448
  %3 = load ptr, ptr %2, align 8, !tbaa !10
  %.not.i.i.i.i = icmp ne ptr %3, null
  %4 = getelementptr inbounds nuw i8, ptr %.val, i64 272
  %5 = load i64, ptr %4, align 8
  %6 = getelementptr inbounds nuw i8, ptr %.val, i64 464
  %7 = load i64, ptr %6, align 8
  %8 = icmp uge i64 %5, %7
  %9 = select i1 %.not.i.i.i.i, i1 %8, i1 false
  br i1 %9, label %10, label %"_ZSt10__invoke_rIbRZN3sat12ddfw_wrapper5checkEjPKNS0_7literalEPNS0_8parallelEE3$_0JEENSt9enable_ifIX16is_invocable_r_vIT_T0_DpT1_EESA_E4typeEOSB_DpOSC_.exit"

10:                                               ; preds = %1
  %11 = tail call noundef zeroext i1 @_ZN3sat8parallel11from_solverERNS_14i_local_searchE(ptr noundef nonnull align 8 dereferenceable(176) %3, ptr noundef nonnull align 8 dereferenceable(472) %.val)
  br i1 %11, label %12, label %_ZN3sat12ddfw_wrapper16do_parallel_syncEv.exit.i.i.i

12:                                               ; preds = %10
  %13 = load ptr, ptr %2, align 8, !tbaa !10
  tail call void @_ZN3sat8parallel9to_solverERNS_14i_local_searchE(ptr noundef nonnull align 8 dereferenceable(176) %13, ptr noundef nonnull align 8 dereferenceable(472) %.val)
  br label %_ZN3sat12ddfw_wrapper16do_parallel_syncEv.exit.i.i.i

_ZN3sat12ddfw_wrapper16do_parallel_syncEv.exit.i.i.i: ; preds = %12, %10
  %14 = getelementptr inbounds nuw i8, ptr %.val, i64 456
  %15 = load i32, ptr %14, align 8, !tbaa !67
  %16 = add i32 %15, 1
  store i32 %16, ptr %14, align 8, !tbaa !67
  %17 = load i64, ptr %6, align 8, !tbaa !68
  %18 = mul i64 %17, 3
  %19 = lshr i64 %18, 1
  store i64 %19, ptr %6, align 8, !tbaa !68
  br label %"_ZSt10__invoke_rIbRZN3sat12ddfw_wrapper5checkEjPKNS0_7literalEPNS0_8parallelEE3$_0JEENSt9enable_ifIX16is_invocable_r_vIT_T0_DpT1_EESA_E4typeEOSB_DpOSC_.exit"

"_ZSt10__invoke_rIbRZN3sat12ddfw_wrapper5checkEjPKNS0_7literalEPNS0_8parallelEE3$_0JEENSt9enable_ifIX16is_invocable_r_vIT_T0_DpT1_EESA_E4typeEOSB_DpOSC_.exit": ; preds = %1, %_ZN3sat12ddfw_wrapper16do_parallel_syncEv.exit.i.i.i
  ret i1 %9
}